target datalayout = "e-m:e-p270:32:32-p271:32:32-p272:64:64-i64:64-i128:128-f80:128-n8:16:32:64-S128"
target triple = "x86_64-unknown-linux-gnu"

@.str.25 = private unnamed_addr constant [9 x i8] c"/objects\00", align 1

; Function Attrs: nounwind sspstrong uwtable
define dso_local i64 @qemu_minrampagesize() #0 {
entry:
  %hpsize = alloca i64, align 8
  %memdev_root = alloca ptr, align 8
  store i64 9223372036854775807, ptr %hpsize, align 8
  %call = call ptr @object_resolve_path(ptr noundef @.str.25, ptr noundef null)
  store ptr %call, ptr %memdev_root, align 8
  %0 = load ptr, ptr %memdev_root, align 8
  %call1 = call i32 @object_child_foreach(ptr noundef %0, ptr noundef @find_min_backend_pagesize, ptr noundef %hpsize)
  %1 = load i64, ptr %hpsize, align 8
  ret i64 %1
}