; Function Attrs: nounwind sspstrong uwtable
define dso_local i64 @qemu_minrampagesize() local_unnamed_addr #0 {
entry:
  %hpsize = alloca i64, align 8
  store i64 9223372036854775807, ptr %hpsize, align 8
  %call = tail call ptr @object_resolve_path(ptr noundef nonnull @.str.25, ptr noundef null) #28
  %call1 = call i32 @object_child_foreach(ptr noundef %call, ptr noundef nonnull @find_min_backend_pagesize, ptr noundef nonnull %hpsize) #28
  %0 = load i64, ptr %hpsize, align 8
  ret i64 %0
}